target datalayout = "e-m:e-p270:32:32-p271:32:32-p272:64:64-i64:64-i128:128-f80:128-n8:16:32:64-S128"
target triple = "x86_64-pc-linux-gnu"

%struct.mbedtls_pk_info_t = type { i32, ptr, ptr, ptr, ptr, ptr, ptr, ptr, ptr, ptr, ptr, ptr }
%struct.mbedtls_pk_context = type { ptr, ptr }

; Function Attrs: inlinehint mustprogress uwtable
define internal noundef i32 @_ZL17pk_hashlen_helper17mbedtls_md_type_tPm(i32 noundef %0, ptr noundef %1) #3 {
  %3 = alloca i32, align 4
  %4 = alloca i32, align 4
  %5 = alloca ptr, align 8
  %6 = alloca ptr, align 8
  %7 = alloca i32, align 4
  store i32 %0, ptr %4, align 4, !tbaa !20
  store ptr %1, ptr %5, align 8, !tbaa !27
  call void @llvm.lifetime.start.p0(i64 8, ptr %6) #5
  %8 = load ptr, ptr %5, align 8, !tbaa !27
  %9 = load i64, ptr %8, align 8, !tbaa !23
  %10 = icmp ne i64 %9, 0
  br i1 %10, label %11, label %12

11:                                               ; preds = %2
  store i32 0, ptr %3, align 4
  store i32 1, ptr %7, align 4
  br label %22

12:                                               ; preds = %2
  %13 = load i32, ptr %4, align 4, !tbaa !20
  %14 = call ptr @mbedtls_md_info_from_type(i32 noundef %13)
  store ptr %14, ptr %6, align 8, !tbaa !29
  %15 = icmp eq ptr %14, null
  br i1 %15, label %16, label %17

16:                                               ; preds = %12
  store i32 -1, ptr %3, align 4
  store i32 1, ptr %7, align 4
  br label %22

17:                                               ; preds = %12
  %18 = load ptr, ptr %6, align 8, !tbaa !29
  %19 = call zeroext i8 @mbedtls_md_get_size(ptr noundef %18)
  %20 = zext i8 %19 to i64
  %21 = load ptr, ptr %5, align 8, !tbaa !27
  store i64 %20, ptr %21, align 8, !tbaa !23
  store i32 0, ptr %3, align 4
  store i32 1, ptr %7, align 4
  br label %22

22:                                               ; preds = %17, %16, %11
  call void @llvm.lifetime.end.p0(i64 8, ptr %6) #5
  %23 = load i32, ptr %3, align 4
  ret i32 %23
}

; Function Attrs: mustprogress uwtable
define hidden i32 @mbedtls_pk_verify_restartable(ptr noundef %0, i32 noundef %1, ptr noundef %2, i64 noundef %3, ptr noundef %4, i64 noundef %5, ptr noundef %6) #1 {
  %8 = alloca i32, align 4
  %9 = alloca ptr, align 8
  %10 = alloca i32, align 4
  %11 = alloca ptr, align 8
  %12 = alloca i64, align 8
  %13 = alloca ptr, align 8
  %14 = alloca i64, align 8
  %15 = alloca ptr, align 8
  store ptr %0, ptr %9, align 8, !tbaa !3
  store i32 %1, ptr %10, align 4, !tbaa !20
  store ptr %2, ptr %11, align 8, !tbaa !22
  store i64 %3, ptr %12, align 8, !tbaa !23
  store ptr %4, ptr %13, align 8, !tbaa !22
  store i64 %5, ptr %14, align 8, !tbaa !23
  store ptr %6, ptr %15, align 8, !tbaa !25
  br label %16

16:                                               ; preds = %7
  br label %17

17:                                               ; preds = %16
  br label %18

18:                                               ; preds = %17
  br label %19

19:                                               ; preds = %18
  br label %20

20:                                               ; preds = %19
  br label %21

21:                                               ; preds = %20
  %22 = load ptr, ptr %9, align 8, !tbaa !3
  %23 = getelementptr inbounds nuw %struct.mbedtls_pk_context, ptr %22, i32 0, i32 0
  %24 = load ptr, ptr %23, align 8, !tbaa !8
  %25 = icmp eq ptr %24, null
  br i1 %25, label %30, label %26

26:                                               ; preds = %21
  %27 = load i32, ptr %10, align 4, !tbaa !20
  %28 = call noundef i32 @_ZL17pk_hashlen_helper17mbedtls_md_type_tPm(i32 noundef %27, ptr noundef %12)
  %29 = icmp ne i32 %28, 0
  br i1 %29, label %30, label %31

30:                                               ; preds = %26, %21
  store i32 -16000, ptr %8, align 4
  br label %54

31:                                               ; preds = %26
  %32 = load ptr, ptr %9, align 8, !tbaa !3
  %33 = getelementptr inbounds nuw %struct.mbedtls_pk_context, ptr %32, i32 0, i32 0
  %34 = load ptr, ptr %33, align 8, !tbaa !8
  %35 = getelementptr inbounds nuw %struct.mbedtls_pk_info_t, ptr %34, i32 0, i32 4
  %36 = load ptr, ptr %35, align 8, !tbaa !26
  %37 = icmp eq ptr %36, null
  br i1 %37, label %38, label %39

38:                                               ; preds = %31
  store i32 -16128, ptr %8, align 4
  br label %54

39:                                               ; preds = %31
  %40 = load ptr, ptr %9, align 8, !tbaa !3
  %41 = getelementptr inbounds nuw %struct.mbedtls_pk_context, ptr %40, i32 0, i32 0
  %42 = load ptr, ptr %41, align 8, !tbaa !8
  %43 = getelementptr inbounds nuw %struct.mbedtls_pk_info_t, ptr %42, i32 0, i32 4
  %44 = load ptr, ptr %43, align 8, !tbaa !26
  %45 = load ptr, ptr %9, align 8, !tbaa !3
  %46 = getelementptr inbounds nuw %struct.mbedtls_pk_context, ptr %45, i32 0, i32 1
  %47 = load ptr, ptr %46, align 8, !tbaa !11
  %48 = load i32, ptr %10, align 4, !tbaa !20
  %49 = load ptr, ptr %11, align 8, !tbaa !22
  %50 = load i64, ptr %12, align 8, !tbaa !23
  %51 = load ptr, ptr %13, align 8, !tbaa !22
  %52 = load i64, ptr %14, align 8, !tbaa !23
  %53 = call noundef i32 %44(ptr noundef %47, i32 noundef %48, ptr noundef %49, i64 noundef %50, ptr noundef %51, i64 noundef %52)
  store i32 %53, ptr %8, align 4
  br label %54

54:                                               ; preds = %39, %38, %30
  %55 = load i32, ptr %8, align 4
  ret i32 %55
}

; Function Attrs: mustprogress uwtable
define hidden i32 @mbedtls_pk_verify(ptr noundef %0, i32 noundef %1, ptr noundef %2, i64 noundef %3, ptr noundef %4, i64 noundef %5) #1 {
  %7 = alloca ptr, align 8
  %8 = alloca i32, align 4
  %9 = alloca ptr, align 8
  %10 = alloca i64, align 8
  %11 = alloca ptr, align 8
  %12 = alloca i64, align 8
  store ptr %0, ptr %7, align 8, !tbaa !3
  store i32 %1, ptr %8, align 4, !tbaa !20
  store ptr %2, ptr %9, align 8, !tbaa !22
  store i64 %3, ptr %10, align 8, !tbaa !23
  store ptr %4, ptr %11, align 8, !tbaa !22
  store i64 %5, ptr %12, align 8, !tbaa !23
  %13 = load ptr, ptr %7, align 8, !tbaa !3
  %14 = load i32, ptr %8, align 4, !tbaa !20
  %15 = load ptr, ptr %9, align 8, !tbaa !22
  %16 = load i64, ptr %10, align 8, !tbaa !23
  %17 = load ptr, ptr %11, align 8, !tbaa !22
  %18 = load i64, ptr %12, align 8, !tbaa !23
  %19 = call i32 @mbedtls_pk_verify_restartable(ptr noundef %13, i32 noundef %14, ptr noundef %15, i64 noundef %16, ptr noundef %17, i64 noundef %18, ptr noundef null)
  ret i32 %19
}

; Function Attrs: mustprogress uwtable
define hidden i32 @mbedtls_pk_can_do(ptr noundef %0, i32 noundef %1) #1 {
  %3 = alloca i32, align 4
  %4 = alloca ptr, align 8
  %5 = alloca i32, align 4
  store ptr %0, ptr %4, align 8, !tbaa !3
  store i32 %1, ptr %5, align 4, !tbaa !16
  %6 = load ptr, ptr %4, align 8, !tbaa !3
  %7 = icmp eq ptr %6, null
  br i1 %7, label %13, label %8

8:                                                ; preds = %2
  %9 = load ptr, ptr %4, align 8, !tbaa !3
  %10 = getelementptr inbounds nuw %struct.mbedtls_pk_context, ptr %9, i32 0, i32 0
  %11 = load ptr, ptr %10, align 8, !tbaa !8
  %12 = icmp eq ptr %11, null
  br i1 %12, label %13, label %14

13:                                               ; preds = %8, %2
  store i32 0, ptr %3, align 4
  br label %22

14:                                               ; preds = %8
  %15 = load ptr, ptr %4, align 8, !tbaa !3
  %16 = getelementptr inbounds nuw %struct.mbedtls_pk_context, ptr %15, i32 0, i32 0
  %17 = load ptr, ptr %16, align 8, !tbaa !8
  %18 = getelementptr inbounds nuw %struct.mbedtls_pk_info_t, ptr %17, i32 0, i32 3
  %19 = load ptr, ptr %18, align 8, !tbaa !19
  %20 = load i32, ptr %5, align 4, !tbaa !16
  %21 = call noundef i32 %19(i32 noundef %20)
  store i32 %21, ptr %3, align 4
  br label %22

22:                                               ; preds = %14, %13
  %23 = load i32, ptr %3, align 4
  ret i32 %23
}

; Function Attrs: mustprogress uwtable
define hidden i32 @mbedtls_pk_verify_ext(i32 noundef %0, ptr noundef %1, ptr noundef %2, i32 noundef %3, ptr noundef %4, i64 noundef %5, ptr noundef %6, i64 noundef %7) #1 {
  %9 = alloca i32, align 4
  %10 = alloca i32, align 4
  %11 = alloca ptr, align 8
  %12 = alloca ptr, align 8
  %13 = alloca i32, align 4
  %14 = alloca ptr, align 8
  %15 = alloca i64, align 8
  %16 = alloca ptr, align 8
  %17 = alloca i64, align 8
  store i32 %0, ptr %10, align 4, !tbaa !16
  store ptr %1, ptr %11, align 8, !tbaa !25
  store ptr %2, ptr %12, align 8, !tbaa !3
  store i32 %3, ptr %13, align 4, !tbaa !20
  store ptr %4, ptr %14, align 8, !tbaa !22
  store i64 %5, ptr %15, align 8, !tbaa !23
  store ptr %6, ptr %16, align 8, !tbaa !22
  store i64 %7, ptr %17, align 8, !tbaa !23
  br label %18

18:                                               ; preds = %8
  br label %19

19:                                               ; preds = %18
  br label %20

20:                                               ; preds = %19
  br label %21

21:                                               ; preds = %20
  br label %22

22:                                               ; preds = %21
  br label %23

23:                                               ; preds = %22
  %24 = load ptr, ptr %12, align 8, !tbaa !3
  %25 = getelementptr inbounds nuw %struct.mbedtls_pk_context, ptr %24, i32 0, i32 0
  %26 = load ptr, ptr %25, align 8, !tbaa !8
  %27 = icmp eq ptr %26, null
  br i1 %27, label %28, label %29

28:                                               ; preds = %23
  store i32 -16000, ptr %9, align 4
  br label %51

29:                                               ; preds = %23
  %30 = load ptr, ptr %12, align 8, !tbaa !3
  %31 = load i32, ptr %10, align 4, !tbaa !16
  %32 = call i32 @mbedtls_pk_can_do(ptr noundef %30, i32 noundef %31)
  %33 = icmp ne i32 %32, 0
  br i1 %33, label %35, label %34

34:                                               ; preds = %29
  store i32 -16128, ptr %9, align 4
  br label %51

35:                                               ; preds = %29
  %36 = load i32, ptr %10, align 4, !tbaa !16
  %37 = icmp eq i32 %36, 6
  br i1 %37, label %38, label %39

38:                                               ; preds = %35
  store i32 -14720, ptr %9, align 4
  br label %51

39:                                               ; preds = %35
  %40 = load ptr, ptr %11, align 8, !tbaa !25
  %41 = icmp ne ptr %40, null
  br i1 %41, label %42, label %43

42:                                               ; preds = %39
  store i32 -16000, ptr %9, align 4
  br label %51

43:                                               ; preds = %39
  %44 = load ptr, ptr %12, align 8, !tbaa !3
  %45 = load i32, ptr %13, align 4, !tbaa !20
  %46 = load ptr, ptr %14, align 8, !tbaa !22
  %47 = load i64, ptr %15, align 8, !tbaa !23
  %48 = load ptr, ptr %16, align 8, !tbaa !22
  %49 = load i64, ptr %17, align 8, !tbaa !23
  %50 = call i32 @mbedtls_pk_verify(ptr noundef %44, i32 noundef %45, ptr noundef %46, i64 noundef %47, ptr noundef %48, i64 noundef %49)
  store i32 %50, ptr %9, align 4
  br label %51

51:                                               ; preds = %43, %42, %38, %34, %28
  %52 = load i32, ptr %9, align 4
  ret i32 %52
}