; Function Attrs: mustprogress uwtable
define hidden noundef i32 @mbedtls_pk_verify_ext(i32 noundef %0, ptr noundef readnone captures(address_is_null) %1, ptr noundef readonly captures(none) %2, i32 noundef %3, ptr noundef %4, i64 noundef %5, ptr noundef %6, i64 noundef %7) local_unnamed_addr #1 {
  %9 = load ptr, ptr %2, align 8, !tbaa !3
  %10 = icmp eq ptr %9, null
  br i1 %10, label %mbedtls_pk_verify.exit, label %mbedtls_pk_can_do.exit

mbedtls_pk_can_do.exit:                           ; preds = %8
  %11 = getelementptr inbounds nuw i8, ptr %9, i64 24
  %12 = load ptr, ptr %11, align 8, !tbaa !15
  %13 = tail call noundef i32 %12(i32 noundef %0)
  %.not = icmp eq i32 %13, 0
  br i1 %.not, label %mbedtls_pk_verify.exit, label %14

14:                                               ; preds = %mbedtls_pk_can_do.exit
  %15 = icmp eq i32 %0, 6
  br i1 %15, label %mbedtls_pk_verify.exit, label %16

16:                                               ; preds = %14
  %.not11 = icmp eq ptr %1, null
  br i1 %.not11, label %17, label %mbedtls_pk_verify.exit

17:                                               ; preds = %16
  %18 = load ptr, ptr %2, align 8, !tbaa !3
  %19 = icmp eq ptr %18, null
  br i1 %19, label %mbedtls_pk_verify.exit, label %20

20:                                               ; preds = %17
  %.not.i.i.i = icmp eq i64 %5, 0
  br i1 %.not.i.i.i, label %21, label %27

21:                                               ; preds = %20
  %22 = tail call ptr @mbedtls_md_info_from_type(i32 noundef %3)
  %23 = icmp eq ptr %22, null
  br i1 %23, label %mbedtls_pk_verify.exit, label %24

24:                                               ; preds = %21
  %25 = tail call zeroext i8 @mbedtls_md_get_size(ptr noundef nonnull %22)
  %26 = zext i8 %25 to i64
  %.pre.i.i = load ptr, ptr %2, align 8, !tbaa !3
  br label %27

27:                                               ; preds = %24, %20
  %28 = phi ptr [ %18, %20 ], [ %.pre.i.i, %24 ]
  %.011.ph.i.i = phi i64 [ %5, %20 ], [ %26, %24 ]
  %29 = getelementptr inbounds nuw i8, ptr %28, i64 32
  %30 = load ptr, ptr %29, align 8, !tbaa !16
  %31 = icmp eq ptr %30, null
  br i1 %31, label %mbedtls_pk_verify.exit, label %32

32:                                               ; preds = %27
  %33 = getelementptr inbounds nuw i8, ptr %2, i64 8
  %34 = load ptr, ptr %33, align 8, !tbaa !13
  %35 = tail call noundef i32 %30(ptr noundef %34, i32 noundef %3, ptr noundef %4, i64 noundef %.011.ph.i.i, ptr noundef %6, i64 noundef %7)
  br label %mbedtls_pk_verify.exit

mbedtls_pk_verify.exit:                           ; preds = %32, %27, %21, %17, %16, %14, %mbedtls_pk_can_do.exit, %8
  %.0 = phi i32 [ -16000, %8 ], [ -16128, %mbedtls_pk_can_do.exit ], [ -14720, %14 ], [ -16000, %16 ], [ %35, %32 ], [ -16000, %17 ], [ -16128, %27 ], [ -16000, %21 ]
  ret i32 %.0
}